target datalayout = "e-m:e-p270:32:32-p271:32:32-p272:64:64-i64:64-i128:128-f80:128-n8:16:32:64-S128"
target triple = "x86_64-pc-linux-gnu"

; Function Attrs: nounwind uwtable
define dso_local zeroext i1 @gres_valid_name(ptr noundef %0) #0 {
  %2 = alloca i1, align 1
  %3 = alloca ptr, align 8
  store ptr %0, ptr %3, align 8
  %4 = load ptr, ptr %3, align 8
  %5 = icmp ne ptr %4, null
  br i1 %5, label %6, label %12

6:                                                ; preds = %1
  %7 = load ptr, ptr %3, align 8
  %8 = getelementptr inbounds i8, ptr %7, i64 0
  %9 = load i8, ptr %8, align 1
  %10 = sext i8 %9 to i32
  %11 = icmp eq i32 %10, 0
  br i1 %11, label %12, label %13

12:                                               ; preds = %6, %1
  store i1 false, ptr %2, align 1
  br label %19

13:                                               ; preds = %6
  %14 = load ptr, ptr %3, align 8
  %15 = call i64 @gres_get_system_cnt(ptr noundef %14, i1 noundef zeroext false)
  %16 = icmp ne i64 %15, -2
  br i1 %16, label %17, label %18

17:                                               ; preds = %13
  store i1 true, ptr %2, align 1
  br label %19

18:                                               ; preds = %13
  store i1 false, ptr %2, align 1
  br label %19

19:                                               ; preds = %18, %17, %12
  %20 = load i1, ptr %2, align 1
  ret i1 %20
}