; Function Attrs: nounwind uwtable
define dso_local zeroext i1 @gres_valid_name(ptr noundef %0) local_unnamed_addr #2 {
  %.not = icmp eq ptr %0, null
  br i1 %.not, label %7, label %2

2:                                                ; preds = %1
  %3 = load i8, ptr %0, align 1
  %4 = icmp eq i8 %3, 0
  br i1 %4, label %7, label %5

5:                                                ; preds = %2
  %6 = tail call i64 @gres_get_system_cnt(ptr noundef nonnull %0, i1 noundef zeroext false)
  %.not5 = icmp ne i64 %6, -2
  br label %7

7:                                                ; preds = %5, %1, %2
  %.0 = phi i1 [ false, %2 ], [ false, %1 ], [ %.not5, %5 ]
  ret i1 %.0
}